; Function Attrs: noreturn nounwind uwtable
define internal noundef i32 @_spank_task_exit_child(ptr noundef readonly captures(none) %0) #11 {
  %2 = load ptr, ptr %0, align 8
  %3 = getelementptr inbounds nuw i8, ptr %2, i64 112
  %4 = getelementptr inbounds nuw i8, ptr %2, i64 376
  %5 = load i32, ptr %4, align 8
  %6 = tail call i32 @container_g_join(ptr noundef nonnull %3, i32 noundef %5, i1 noundef zeroext false) #17
  %.not = icmp eq i32 %6, 0
  br i1 %.not, label %11, label %7

7:                                                ; preds = %1
  %8 = getelementptr inbounds nuw i8, ptr %2, i64 120
  %9 = load i32, ptr %8, align 8
  %10 = tail call i32 (ptr, ...) @error(ptr noundef nonnull @.str.103, i32 noundef %9) #17
  tail call void @_exit(i32 noundef -1) #19
  unreachable

11:                                               ; preds = %1
  %12 = getelementptr inbounds nuw i8, ptr %0, i64 8
  %13 = load i32, ptr %12, align 8
  %14 = tail call i32 @spank_task_exit(ptr noundef nonnull %2, i32 noundef %13) #17
  %15 = icmp slt i32 %14, 0
  br i1 %15, label %16, label %17

16:                                               ; preds = %11
  tail call void @_exit(i32 noundef 1) #19
  unreachable

17:                                               ; preds = %11
  tail call void @_exit(i32 noundef 0) #19
  unreachable
}